target datalayout = "e-m:e-p270:32:32-p271:32:32-p272:64:64-i64:64-i128:128-f80:128-n8:16:32:64-S128"
target triple = "x86_64-pc-linux-gnu"

%struct._GtkTreeIter = type { i32, ptr, ptr, ptr }

; Function Attrs: nounwind uwtable
define dso_local void @set_for_update(ptr noundef %0, i32 noundef %1) #0 {
  %3 = alloca ptr, align 8
  %4 = alloca i32, align 4
  %5 = alloca ptr, align 8
  %6 = alloca %struct._GtkTreeIter, align 8
  store ptr %0, ptr %3, align 8
  store i32 %1, ptr %4, align 4
  call void @llvm.lifetime.start.p0(i64 8, ptr %5) #11
  %7 = call ptr @gtk_tree_path_new_first()
  store ptr %7, ptr %5, align 8
  call void @llvm.lifetime.start.p0(i64 32, ptr %6) #11
  %8 = load ptr, ptr %5, align 8
  %9 = icmp ne ptr %8, null
  br i1 %9, label %10, label %28

10:                                               ; preds = %2
  %11 = load ptr, ptr %3, align 8
  %12 = load ptr, ptr %5, align 8
  %13 = call i32 @gtk_tree_model_get_iter(ptr noundef %11, ptr noundef %6, ptr noundef %12)
  %14 = icmp ne i32 %13, 0
  br i1 %14, label %15, label %28

15:                                               ; preds = %10
  br label %16

16:                                               ; preds = %26, %15
  br label %17

17:                                               ; preds = %16
  %18 = load ptr, ptr %3, align 8
  %19 = call i64 @gtk_tree_store_get_type() #12
  %20 = call ptr @g_type_check_instance_cast(ptr noundef %18, i64 noundef %19)
  %21 = load i32, ptr %4, align 4
  call void (ptr, ptr, ...) @gtk_tree_store_set(ptr noundef %20, ptr noundef %6, i32 noundef %21, i32 noundef 0, i32 noundef -1)
  %22 = load ptr, ptr %3, align 8
  %23 = call i32 @gtk_tree_model_iter_next(ptr noundef %22, ptr noundef %6)
  %24 = icmp ne i32 %23, 0
  br i1 %24, label %26, label %25

25:                                               ; preds = %17
  br label %27

26:                                               ; preds = %17
  br label %16, !llvm.loop !46

27:                                               ; preds = %25
  br label %28

28:                                               ; preds = %27, %10, %2
  %29 = load ptr, ptr %5, align 8
  %30 = icmp ne ptr %29, null
  br i1 %30, label %31, label %33

31:                                               ; preds = %28
  %32 = load ptr, ptr %5, align 8
  call void @gtk_tree_path_free(ptr noundef %32)
  br label %33

33:                                               ; preds = %31, %28
  call void @llvm.lifetime.end.p0(i64 32, ptr %6) #11
  call void @llvm.lifetime.end.p0(i64 8, ptr %5) #11
  ret void
}