; Function Attrs: nounwind uwtable
define dso_local void @set_for_update(ptr noundef %0, i32 noundef %1) local_unnamed_addr #2 {
  %3 = alloca %struct._GtkTreeIter, align 8
  %4 = tail call ptr @gtk_tree_path_new_first() #16
  call void @llvm.lifetime.start.p0(i64 32, ptr nonnull %3) #16
  %.not = icmp eq ptr %4, null
  br i1 %.not, label %.critedge, label %5

5:                                                ; preds = %2
  %6 = call i32 @gtk_tree_model_get_iter(ptr noundef %0, ptr noundef nonnull %3, ptr noundef nonnull %4) #16
  %.not7 = icmp eq i32 %6, 0
  br i1 %.not7, label %.loopexit, label %.preheader

.preheader:                                       ; preds = %5
  %7 = tail call i64 @gtk_tree_store_get_type() #17
  br label %8

8:                                                ; preds = %.preheader, %8
  %9 = call ptr @g_type_check_instance_cast(ptr noundef %0, i64 noundef %7) #16
  call void (ptr, ptr, ...) @gtk_tree_store_set(ptr noundef %9, ptr noundef nonnull %3, i32 noundef %1, i32 noundef 0, i32 noundef -1) #16
  %10 = call i32 @gtk_tree_model_iter_next(ptr noundef %0, ptr noundef nonnull %3) #16
  %.not8 = icmp eq i32 %10, 0
  br i1 %.not8, label %.loopexit, label %8, !llvm.loop !44

.loopexit:                                        ; preds = %8, %5
  call void @gtk_tree_path_free(ptr noundef nonnull %4) #16
  br label %.critedge

.critedge:                                        ; preds = %2, %.loopexit
  call void @llvm.lifetime.end.p0(i64 32, ptr nonnull %3) #16
  ret void
}